; Function Attrs: nounwind uwtable
define void @lv_cache_entry_delete(ptr noundef %0) local_unnamed_addr #6 {
  %.not = icmp eq ptr %0, null
  br i1 %.not, label %.preheader, label %lv_cache_entry_get_data.exit

.preheader:                                       ; preds = %1, %.preheader
  br label %.preheader

lv_cache_entry_get_data.exit:                     ; preds = %1
  %2 = getelementptr inbounds nuw i8, ptr %0, i64 12
  %3 = load i32, ptr %2, align 4, !tbaa !11
  %4 = zext i32 %3 to i64
  %5 = sub nsw i64 0, %4
  %6 = getelementptr inbounds i8, ptr %0, i64 %5
  tail call void @lv_free(ptr noundef nonnull %6) #9
  ret void
}